; Function Attrs: nounwind uwtable
define noundef ptr @compile_file(ptr noundef %0, i32 noundef %1) local_unnamed_addr #0 {
  %3 = alloca %struct._zend_lex_state, align 8
  %4 = load i32, ptr getelementptr inbounds (%struct._zend_php_scanner_globals, ptr @language_scanner_globals, i64 0, i32 2), align 8
  store i32 %4, ptr %3, align 8
  %5 = getelementptr inbounds i8, ptr %3, i64 8
  %6 = load <2 x ptr>, ptr getelementptr inbounds (%struct._zend_php_scanner_globals, ptr @language_scanner_globals, i64 0, i32 3), align 8
  store <2 x ptr> %6, ptr %5, align 8
  %7 = getelementptr inbounds i8, ptr %3, i64 24
  %8 = load <2 x ptr>, ptr getelementptr inbounds (%struct._zend_php_scanner_globals, ptr @language_scanner_globals, i64 0, i32 5), align 8
  store <2 x ptr> %8, ptr %7, align 8
  %9 = load ptr, ptr getelementptr inbounds (%struct._zend_php_scanner_globals, ptr @language_scanner_globals, i64 0, i32 7), align 8
  %10 = getelementptr inbounds i8, ptr %3, i64 40
  store ptr %9, ptr %10, align 8
  %11 = getelementptr inbounds i8, ptr %3, i64 56
  call void @llvm.memcpy.p0.p0.i64(ptr noundef nonnull align 8 dereferenceable(24) %11, ptr noundef nonnull align 8 dereferenceable(24) getelementptr inbounds (%struct._zend_php_scanner_globals, ptr @language_scanner_globals, i64 0, i32 9), i64 24, i1 false)
  tail call void @zend_stack_init(ptr noundef nonnull getelementptr inbounds (%struct._zend_php_scanner_globals, ptr @language_scanner_globals, i64 0, i32 9), i32 noundef 4) #16
  %12 = getelementptr inbounds i8, ptr %3, i64 112
  call void @llvm.memcpy.p0.p0.i64(ptr noundef nonnull align 8 dereferenceable(24) %12, ptr noundef nonnull align 8 dereferenceable(24) getelementptr inbounds (%struct._zend_php_scanner_globals, ptr @language_scanner_globals, i64 0, i32 11), i64 24, i1 false)
  tail call void @zend_stack_init(ptr noundef nonnull getelementptr inbounds (%struct._zend_php_scanner_globals, ptr @language_scanner_globals, i64 0, i32 11), i32 noundef 8) #16
  %13 = getelementptr inbounds i8, ptr %3, i64 80
  call void @llvm.memcpy.p0.p0.i64(ptr noundef nonnull align 8 dereferenceable(32) %13, ptr noundef nonnull align 8 dereferenceable(32) getelementptr inbounds (%struct._zend_php_scanner_globals, ptr @language_scanner_globals, i64 0, i32 10), i64 32, i1 false)
  tail call void @zend_ptr_stack_init(ptr noundef nonnull getelementptr inbounds (%struct._zend_php_scanner_globals, ptr @language_scanner_globals, i64 0, i32 10)) #16
  %14 = load ptr, ptr @language_scanner_globals, align 8
  %15 = getelementptr inbounds i8, ptr %3, i64 136
  store ptr %14, ptr %15, align 8
  %16 = load i32, ptr getelementptr inbounds (%struct._zend_php_scanner_globals, ptr @language_scanner_globals, i64 0, i32 8), align 8
  %17 = getelementptr inbounds i8, ptr %3, i64 48
  store i32 %16, ptr %17, align 8
  %18 = load ptr, ptr getelementptr inbounds (%struct._zend_compiler_globals, ptr @compiler_globals, i64 0, i32 2), align 8
  %19 = getelementptr inbounds i8, ptr %3, i64 152
  store ptr %18, ptr %19, align 8
  %20 = load i32, ptr getelementptr inbounds (%struct._zend_compiler_globals, ptr @compiler_globals, i64 0, i32 3), align 8
  %21 = getelementptr inbounds i8, ptr %3, i64 144
  store i32 %20, ptr %21, align 8
  store ptr null, ptr getelementptr inbounds (%struct._zend_compiler_globals, ptr @compiler_globals, i64 0, i32 2), align 8
  %22 = load ptr, ptr getelementptr inbounds (%struct._zend_php_scanner_globals, ptr @language_scanner_globals, i64 0, i32 15), align 8
  %23 = getelementptr inbounds i8, ptr %3, i64 160
  store ptr %22, ptr %23, align 8
  %24 = load i64, ptr getelementptr inbounds (%struct._zend_php_scanner_globals, ptr @language_scanner_globals, i64 0, i32 16), align 8
  %25 = getelementptr inbounds i8, ptr %3, i64 168
  store i64 %24, ptr %25, align 8
  %26 = load ptr, ptr getelementptr inbounds (%struct._zend_php_scanner_globals, ptr @language_scanner_globals, i64 0, i32 17), align 8
  %27 = getelementptr inbounds i8, ptr %3, i64 176
  store ptr %26, ptr %27, align 8
  %28 = load i64, ptr getelementptr inbounds (%struct._zend_php_scanner_globals, ptr @language_scanner_globals, i64 0, i32 18), align 8
  %29 = getelementptr inbounds i8, ptr %3, i64 184
  store i64 %28, ptr %29, align 8
  %30 = getelementptr inbounds i8, ptr %3, i64 192
  %31 = load <2 x ptr>, ptr getelementptr inbounds (%struct._zend_php_scanner_globals, ptr @language_scanner_globals, i64 0, i32 19), align 8
  store <2 x ptr> %31, ptr %30, align 8
  %32 = load ptr, ptr getelementptr inbounds (%struct._zend_php_scanner_globals, ptr @language_scanner_globals, i64 0, i32 21), align 8
  %33 = getelementptr inbounds i8, ptr %3, i64 208
  store ptr %32, ptr %33, align 8
  %34 = getelementptr inbounds i8, ptr %3, i64 216
  %35 = load <2 x ptr>, ptr getelementptr inbounds (%struct._zend_php_scanner_globals, ptr @language_scanner_globals, i64 0, i32 23), align 8
  store <2 x ptr> %35, ptr %34, align 8
  %36 = getelementptr inbounds i8, ptr %3, i64 232
  %37 = load <2 x ptr>, ptr getelementptr inbounds (%struct._zend_compiler_globals, ptr @compiler_globals, i64 0, i32 31), align 8
  store <2 x ptr> %37, ptr %36, align 8
  %38 = tail call i32 @open_file_for_scanning(ptr noundef %0), !range !4
  %39 = icmp eq i32 %38, -1
  br i1 %39, label %40, label %49

40:                                               ; preds = %2
  %41 = load ptr, ptr getelementptr inbounds (%struct._zend_executor_globals, ptr @executor_globals, i64 0, i32 50), align 8
  %.not = icmp eq ptr %41, null
  br i1 %.not, label %42, label %51

42:                                               ; preds = %40
  %43 = icmp eq i32 %1, 8
  %44 = getelementptr inbounds i8, ptr %0, i64 40
  %45 = load ptr, ptr %44, align 8
  %46 = getelementptr inbounds i8, ptr %45, i64 24
  br i1 %43, label %47, label %48

47:                                               ; preds = %42
  tail call void @zend_message_dispatcher(i64 noundef 2, ptr noundef nonnull %46) #16
  br label %51

48:                                               ; preds = %42
  tail call void @zend_message_dispatcher(i64 noundef 1, ptr noundef nonnull %46) #16
  br label %51

49:                                               ; preds = %2
  %50 = tail call fastcc ptr @zend_compile(i32 noundef 2)
  br label %51

51:                                               ; preds = %40, %48, %47, %49
  %.0 = phi ptr [ null, %40 ], [ null, %47 ], [ null, %48 ], [ %50, %49 ]
  call void @zend_restore_lexical_state(ptr noundef nonnull %3)
  ret ptr %.0
}